target datalayout = "e-m:e-p270:32:32-p271:32:32-p272:64:64-i64:64-i128:128-f80:128-n8:16:32:64-S128"
target triple = "x86_64-pc-linux-gnu"

%struct._gsm_map_stat_t = type { [256 x i32], [256 x i32], [256 x i32], [256 x i32] }
%struct._GString = type { ptr, i64, i64 }

@gsm_map_stat = global %struct._gsm_map_stat_t zeroinitializer, align 4
@.str.39 = private unnamed_addr constant [8 x i8] c"gsm_map\00", align 1
@.str.40 = private unnamed_addr constant [3 x i8] c"%s\00", align 1

; Function Attrs: mustprogress uwtable
define void @register_tap_listener_qt_gsm_map_summary() #0 {
  %1 = alloca ptr, align 8
  call void @llvm.memset.p0.i64(ptr align 1 @gsm_map_stat, i8 0, i64 4096, i1 false)
  %2 = call ptr @register_tap_listener(ptr noundef @.str.39, ptr noundef @gsm_map_stat, ptr noundef null, i32 noundef 0, ptr noundef @_ZL21gsm_map_summary_resetPv, ptr noundef @_ZL22gsm_map_summary_packetPvP12_packet_infoP12epan_dissectPKvj, ptr noundef null, ptr noundef null)
  store ptr %2, ptr %1, align 8
  %3 = load ptr, ptr %1, align 8
  %4 = icmp ne ptr %3, null
  br i1 %4, label %5, label %12

5:                                                ; preds = %0
  %6 = load ptr, ptr %1, align 8
  %7 = getelementptr inbounds %struct._GString, ptr %6, i32 0, i32 0
  %8 = load ptr, ptr %7, align 8
  %9 = call ptr (i32, i32, ptr, ...) @simple_dialog(i32 noundef 3, i32 noundef 1, ptr noundef @.str.40, ptr noundef %8)
  %10 = load ptr, ptr %1, align 8
  %11 = call ptr @g_string_free(ptr noundef %10, i32 noundef 1)
  call void @exit(i32 noundef 1) #15
  unreachable

12:                                               ; preds = %0
  ret void
}