; Function Attrs: mustprogress uwtable
define void @register_tap_listener_qt_gsm_map_summary() local_unnamed_addr #0 {
  tail call void @llvm.memset.p0.i64(ptr noundef nonnull align 4 dereferenceable(4096) @gsm_map_stat, i8 0, i64 4096, i1 false)
  %1 = tail call ptr @register_tap_listener(ptr noundef nonnull @.str.39, ptr noundef nonnull @gsm_map_stat, ptr noundef null, i32 noundef 0, ptr noundef nonnull @_ZL21gsm_map_summary_resetPv, ptr noundef nonnull @_ZL22gsm_map_summary_packetPvP12_packet_infoP12epan_dissectPKvj, ptr noundef null, ptr noundef null)
  %.not = icmp eq ptr %1, null
  br i1 %.not, label %6, label %2

2:                                                ; preds = %0
  %3 = load ptr, ptr %1, align 8
  %4 = tail call ptr (i32, i32, ptr, ...) @simple_dialog(i32 noundef 3, i32 noundef 1, ptr noundef nonnull @.str.40, ptr noundef %3)
  %5 = tail call ptr @g_string_free(ptr noundef nonnull %1, i32 noundef 1)
  tail call void @exit(i32 noundef 1) #16
  unreachable

6:                                                ; preds = %0
  ret void
}